target datalayout = "e-m:e-p270:32:32-p271:32:32-p272:64:64-i64:64-i128:128-f80:128-n8:16:32:64-S128"
target triple = "x86_64-unknown-linux-gnu"

%"class.datalog::mk_array_instantiation" = type { %"class.datalog::rule_transformer::plugin", ptr, ptr, %class.array_util, ptr, ptr, ptr, %class.obj_map, %class.obj_equiv_class, i32, [4 x i8], %class.obj_map.6, %class.ref_vector }
%"class.datalog::rule_transformer::plugin" = type { ptr, i32, i8, ptr }
%class.array_util = type { %class.array_recognizers, ptr }
%class.array_recognizers = type { i32 }
%class.obj_map = type { %class.core_hashtable }
%class.core_hashtable = type <{ ptr, i32, i32, i32, [4 x i8] }>
%class.obj_equiv_class = type { %class.basic_union_find, %class.obj_map.0, %class.ref_vector }
%class.basic_union_find = type { %class.svector, %class.svector, %class.svector }
%class.svector = type { %class.vector }
%class.vector = type { ptr }
%class.obj_map.0 = type { %class.core_hashtable.1 }
%class.core_hashtable.1 = type <{ ptr, i32, i32, i32, [4 x i8] }>
%class.obj_map.6 = type { %class.core_hashtable.7 }
%class.core_hashtable.7 = type <{ ptr, i32, i32, i32, [4 x i8] }>
%class.ref_vector = type { %class.ref_vector_core }
%class.ref_vector_core = type { %class.ref_manager_wrapper, %class.ptr_vector }
%class.ref_manager_wrapper = type { ptr }
%class.ptr_vector = type { %class.vector.5 }
%class.vector.5 = type { ptr }
%class.obj_hashtable = type { %class.core_hashtable.base.22, [4 x i8] }
%class.core_hashtable.base.22 = type <{ ptr, i32, i32, i32 }>
%class.obj_map.54 = type { %class.core_hashtable.55 }
%class.core_hashtable.55 = type <{ ptr, i32, i32, i32, [4 x i8] }>
%class.expr_sparse_mark = type { %class.obj_hashtable }
%class.ptr_vector.84 = type { %class.vector.85 }
%class.vector.85 = type { ptr }
%class.obj_hashtable.107 = type { %class.core_hashtable.base.111, [4 x i8] }
%class.core_hashtable.base.111 = type <{ ptr, i32, i32, i32 }>
%"class.datalog::rule_set" = type { ptr, ptr, %class.ref_vector.122, %class.obj_map.125, %"class.datalog::rule_dependencies", %class.scoped_ptr.135, %class.obj_hashtable.107, %class.obj_map.54, %class.obj_map.54, %class.ref_vector.136, %class.ptr_vector.84 }
%class.ref_vector.122 = type { %class.ref_vector_core.123 }
%class.ref_vector_core.123 = type { %class.ref_manager_wrapper.124, %class.ptr_vector.84 }
%class.ref_manager_wrapper.124 = type { ptr }
%class.obj_map.125 = type { %class.core_hashtable.126 }
%class.core_hashtable.126 = type <{ ptr, i32, i32, i32, [4 x i8] }>
%"class.datalog::rule_dependencies" = type { %class.obj_map.130, ptr, %class.ptr_vector, %class.expr_sparse_mark, %class.obj_hashtable.107 }
%class.obj_map.130 = type { %class.core_hashtable.131 }
%class.core_hashtable.131 = type <{ ptr, i32, i32, i32, [4 x i8] }>
%class.scoped_ptr.135 = type { ptr }
%class.ref_vector.136 = type { %class.ref_vector_core.137 }
%class.ref_vector_core.137 = type { %class.ref_manager_wrapper.138, %class.ptr_vector.139 }
%class.ref_manager_wrapper.138 = type { ptr }
%class.ptr_vector.139 = type { %class.vector.140 }
%class.vector.140 = type { ptr }
%class.scoped_ptr.173 = type { ptr }

; Function Attrs: mustprogress nounwind uwtable
define linkonce_odr hidden noundef nonnull align 8 dereferenceable(8) ptr @_ZNK6vectorIPN7datalog4ruleELb0EjEixEj(ptr noundef nonnull align 8 dereferenceable(8) %this, i32 noundef %idx) #5 comdat align 2 {
entry:
  %this.addr = alloca ptr, align 8
  %idx.addr = alloca i32, align 4
  store ptr %this, ptr %this.addr, align 8
  store i32 %idx, ptr %idx.addr, align 4
  %this1 = load ptr, ptr %this.addr, align 8
  %m_data = getelementptr inbounds %class.vector.85, ptr %this1, i32 0, i32 0
  %0 = load ptr, ptr %m_data, align 8
  %1 = load i32, ptr %idx.addr, align 4
  %idxprom = zext i32 %1 to i64
  %arrayidx = getelementptr inbounds ptr, ptr %0, i64 %idxprom
  ret ptr %arrayidx
}

; Function Attrs: mustprogress uwtable
define linkonce_odr hidden noundef ptr @_ZNK15ref_vector_coreIN7datalog4ruleE19ref_manager_wrapperIS1_NS0_12rule_managerEEEixEj(ptr noundef nonnull align 8 dereferenceable(16) %this, i32 noundef %idx) #4 comdat align 2 {
entry:
  %this.addr = alloca ptr, align 8
  %idx.addr = alloca i32, align 4
  store ptr %this, ptr %this.addr, align 8
  store i32 %idx, ptr %idx.addr, align 4
  %this1 = load ptr, ptr %this.addr, align 8
  %m_nodes = getelementptr inbounds %class.ref_vector_core.123, ptr %this1, i32 0, i32 1
  %0 = load i32, ptr %idx.addr, align 4
  %call = call noundef nonnull align 8 dereferenceable(8) ptr @_ZNK6vectorIPN7datalog4ruleELb0EjEixEj(ptr noundef nonnull align 8 dereferenceable(8) %m_nodes, i32 noundef %0)
  %1 = load ptr, ptr %call, align 8
  ret ptr %1
}

; Function Attrs: mustprogress nounwind uwtable
define linkonce_odr hidden noundef i32 @_ZNK6vectorIPN7datalog4ruleELb0EjE4sizeEv(ptr noundef nonnull align 8 dereferenceable(8) %this) #5 comdat align 2 {
entry:
  %retval = alloca i32, align 4
  %this.addr = alloca ptr, align 8
  store ptr %this, ptr %this.addr, align 8
  %this1 = load ptr, ptr %this.addr, align 8
  %m_data = getelementptr inbounds %class.vector.85, ptr %this1, i32 0, i32 0
  %0 = load ptr, ptr %m_data, align 8
  %cmp = icmp eq ptr %0, null
  br i1 %cmp, label %if.then, label %if.end

if.then:                                          ; preds = %entry
  store i32 0, ptr %retval, align 4
  br label %return

if.end:                                           ; preds = %entry
  %m_data2 = getelementptr inbounds %class.vector.85, ptr %this1, i32 0, i32 0
  %1 = load ptr, ptr %m_data2, align 8
  %arrayidx = getelementptr inbounds i32, ptr %1, i64 -1
  %2 = load i32, ptr %arrayidx, align 4
  store i32 %2, ptr %retval, align 4
  br label %return

return:                                           ; preds = %if.end, %if.then
  %3 = load i32, ptr %retval, align 4
  ret i32 %3
}

; Function Attrs: mustprogress uwtable
define linkonce_odr hidden noundef ptr @_ZNK10ref_vectorIN7datalog4ruleENS0_12rule_managerEEixEj(ptr noundef nonnull align 8 dereferenceable(16) %this, i32 noundef %idx) #4 comdat align 2 {
entry:
  %this.addr = alloca ptr, align 8
  %idx.addr = alloca i32, align 4
  store ptr %this, ptr %this.addr, align 8
  store i32 %idx, ptr %idx.addr, align 4
  %this1 = load ptr, ptr %this.addr, align 8
  %0 = load i32, ptr %idx.addr, align 4
  %call = call noundef ptr @_ZNK15ref_vector_coreIN7datalog4ruleE19ref_manager_wrapperIS1_NS0_12rule_managerEEEixEj(ptr noundef nonnull align 8 dereferenceable(16) %this1, i32 noundef %0)
  ret ptr %call
}

; Function Attrs: mustprogress uwtable
define linkonce_odr hidden noundef i32 @_ZNK15ref_vector_coreIN7datalog4ruleE19ref_manager_wrapperIS1_NS0_12rule_managerEEE4sizeEv(ptr noundef nonnull align 8 dereferenceable(16) %this) #4 comdat align 2 {
entry:
  %this.addr = alloca ptr, align 8
  store ptr %this, ptr %this.addr, align 8
  %this1 = load ptr, ptr %this.addr, align 8
  %m_nodes = getelementptr inbounds %class.ref_vector_core.123, ptr %this1, i32 0, i32 1
  %call = call noundef i32 @_ZNK6vectorIPN7datalog4ruleELb0EjE4sizeEv(ptr noundef nonnull align 8 dereferenceable(8) %m_nodes)
  ret i32 %call
}

; Function Attrs: mustprogress nounwind uwtable
define linkonce_odr hidden noundef ptr @_ZN10scoped_ptrIN7datalog8rule_setEE6detachEv(ptr noundef nonnull align 8 dereferenceable(8) %this) #5 comdat align 2 {
entry:
  %this.addr = alloca ptr, align 8
  %tmp = alloca ptr, align 8
  store ptr %this, ptr %this.addr, align 8
  %this1 = load ptr, ptr %this.addr, align 8
  %m_ptr = getelementptr inbounds %class.scoped_ptr.173, ptr %this1, i32 0, i32 0
  %0 = load ptr, ptr %m_ptr, align 8
  store ptr %0, ptr %tmp, align 8
  %m_ptr2 = getelementptr inbounds %class.scoped_ptr.173, ptr %this1, i32 0, i32 0
  store ptr null, ptr %m_ptr2, align 8
  %1 = load ptr, ptr %tmp, align 8
  ret ptr %1
}

; Function Attrs: mustprogress nounwind uwtable
define linkonce_odr hidden noundef nonnull align 8 dereferenceable(248) ptr @_ZN10scoped_ptrIN7datalog8rule_setEEdeEv(ptr noundef nonnull align 8 dereferenceable(8) %this) #5 comdat align 2 {
entry:
  %this.addr = alloca ptr, align 8
  store ptr %this, ptr %this.addr, align 8
  %this1 = load ptr, ptr %this.addr, align 8
  %m_ptr = getelementptr inbounds %class.scoped_ptr.173, ptr %this1, i32 0, i32 0
  %0 = load ptr, ptr %m_ptr, align 8
  ret ptr %0
}

; Function Attrs: mustprogress uwtable
define linkonce_odr hidden noundef ptr @_ZNK7datalog8rule_set8get_ruleEj(ptr noundef nonnull align 8 dereferenceable(248) %this, i32 noundef %i) #4 comdat align 2 {
entry:
  %this.addr = alloca ptr, align 8
  %i.addr = alloca i32, align 4
  store ptr %this, ptr %this.addr, align 8
  store i32 %i, ptr %i.addr, align 4
  %this1 = load ptr, ptr %this.addr, align 8
  %m_rules = getelementptr inbounds %"class.datalog::rule_set", ptr %this1, i32 0, i32 2
  %0 = load i32, ptr %i.addr, align 4
  %call = call noundef ptr @_ZNK10ref_vectorIN7datalog4ruleENS0_12rule_managerEEixEj(ptr noundef nonnull align 8 dereferenceable(16) %m_rules, i32 noundef %0)
  ret ptr %call
}

; Function Attrs: mustprogress nounwind uwtable
define linkonce_odr hidden noundef nonnull align 8 dereferenceable(1368) ptr @_ZNK7datalog8rule_set16get_rule_managerEv(ptr noundef nonnull align 8 dereferenceable(248) %this) #5 comdat align 2 {
entry:
  %this.addr = alloca ptr, align 8
  store ptr %this, ptr %this.addr, align 8
  %this1 = load ptr, ptr %this.addr, align 8
  %m_rule_manager = getelementptr inbounds %"class.datalog::rule_set", ptr %this1, i32 0, i32 1
  %0 = load ptr, ptr %m_rule_manager, align 8
  ret ptr %0
}

; Function Attrs: mustprogress uwtable
define linkonce_odr hidden noundef i32 @_ZNK7datalog8rule_set13get_num_rulesEv(ptr noundef nonnull align 8 dereferenceable(248) %this) #4 comdat align 2 {
entry:
  %this.addr = alloca ptr, align 8
  store ptr %this, ptr %this.addr, align 8
  %this1 = load ptr, ptr %this.addr, align 8
  %m_rules = getelementptr inbounds %"class.datalog::rule_set", ptr %this1, i32 0, i32 2
  %call = call noundef i32 @_ZNK15ref_vector_coreIN7datalog4ruleE19ref_manager_wrapperIS1_NS0_12rule_managerEEE4sizeEv(ptr noundef nonnull align 8 dereferenceable(16) %m_rules)
  ret i32 %call
}

; Function Attrs: mustprogress nounwind uwtable
define linkonce_odr hidden noundef ptr @_ZNK10scoped_ptrIN7datalog8rule_setEE3getEv(ptr noundef nonnull align 8 dereferenceable(8) %this) #5 comdat align 2 {
entry:
  %this.addr = alloca ptr, align 8
  store ptr %this, ptr %this.addr, align 8
  %this1 = load ptr, ptr %this.addr, align 8
  %m_ptr = getelementptr inbounds %class.scoped_ptr.173, ptr %this1, i32 0, i32 0
  %0 = load ptr, ptr %m_ptr, align 8
  ret ptr %0
}

; Function Attrs: mustprogress nounwind uwtable
define linkonce_odr hidden void @_ZN10scoped_ptrIN7datalog8rule_setEEC2EPS1_(ptr noundef nonnull align 8 dereferenceable(8) %this, ptr noundef %ptr) unnamed_addr #5 comdat align 2 {
entry:
  %this.addr = alloca ptr, align 8
  %ptr.addr = alloca ptr, align 8
  store ptr %this, ptr %this.addr, align 8
  store ptr %ptr, ptr %ptr.addr, align 8
  %this1 = load ptr, ptr %this.addr, align 8
  %m_ptr = getelementptr inbounds %class.scoped_ptr.173, ptr %this1, i32 0, i32 0
  %0 = load ptr, ptr %ptr.addr, align 8
  store ptr %0, ptr %m_ptr, align 8
  ret void
}

; Function Attrs: mustprogress uwtable
define hidden noundef ptr @_ZN7datalog22mk_array_instantiationclERKNS_8rule_setE(ptr noundef nonnull align 8 dereferenceable(216) %this, ptr noundef nonnull align 8 dereferenceable(248) %source) unnamed_addr #4 align 2 personality ptr @__gxx_personality_v0 {
entry:
  %this.addr = alloca ptr, align 8
  %source.addr = alloca ptr, align 8
  %result = alloca %class.scoped_ptr.173, align 8
  %exn.slot = alloca ptr, align 8
  %ehselector.slot = alloca i32, align 4
  %nbrules = alloca i32, align 4
  %i = alloca i32, align 4
  %r = alloca ptr, align 8
  store ptr %this, ptr %this.addr, align 8
  store ptr %source, ptr %source.addr, align 8
  %this1 = load ptr, ptr %this.addr, align 8
  %0 = load ptr, ptr %source.addr, align 8
  %src_set = getelementptr inbounds %"class.datalog::mk_array_instantiation", ptr %this1, i32 0, i32 4
  store ptr %0, ptr %src_set, align 8
  %call = call noalias noundef ptr @_ZN6memory8allocateEm(i64 noundef 248)
  %m_ctx = getelementptr inbounds %"class.datalog::mk_array_instantiation", ptr %this1, i32 0, i32 2
  %1 = load ptr, ptr %m_ctx, align 8
  call void @_ZN7datalog8rule_setC1ERNS_7contextE(ptr noundef nonnull align 8 dereferenceable(248) %call, ptr noundef nonnull align 8 dereferenceable(3556) %1)
  call void @_ZN10scoped_ptrIN7datalog8rule_setEEC2EPS1_(ptr noundef nonnull align 8 dereferenceable(8) %result, ptr noundef %call)
  %call2 = invoke noundef ptr @_ZNK10scoped_ptrIN7datalog8rule_setEE3getEv(ptr noundef nonnull align 8 dereferenceable(8) %result)
          to label %invoke.cont unwind label %lpad

invoke.cont:                                      ; preds = %entry
  %dst = getelementptr inbounds %"class.datalog::mk_array_instantiation", ptr %this1, i32 0, i32 5
  store ptr %call2, ptr %dst, align 8
  %2 = load ptr, ptr %source.addr, align 8
  %call4 = invoke noundef i32 @_ZNK7datalog8rule_set13get_num_rulesEv(ptr noundef nonnull align 8 dereferenceable(248) %2)
          to label %invoke.cont3 unwind label %lpad

invoke.cont3:                                     ; preds = %invoke.cont
  store i32 %call4, ptr %nbrules, align 4
  %3 = load ptr, ptr %source.addr, align 8
  %call6 = invoke noundef nonnull align 8 dereferenceable(1368) ptr @_ZNK7datalog8rule_set16get_rule_managerEv(ptr noundef nonnull align 8 dereferenceable(248) %3)
          to label %invoke.cont5 unwind label %lpad

invoke.cont5:                                     ; preds = %invoke.cont3
  %src_manager = getelementptr inbounds %"class.datalog::mk_array_instantiation", ptr %this1, i32 0, i32 6
  store ptr %call6, ptr %src_manager, align 8
  store i32 0, ptr %i, align 4
  br label %for.cond

for.cond:                                         ; preds = %for.inc, %invoke.cont5
  %4 = load i32, ptr %i, align 4
  %5 = load i32, ptr %nbrules, align 4
  %cmp = icmp ult i32 %4, %5
  br i1 %cmp, label %for.body, label %for.end

for.body:                                         ; preds = %for.cond
  %6 = load ptr, ptr %source.addr, align 8
  %7 = load i32, ptr %i, align 4
  %call8 = invoke noundef ptr @_ZNK7datalog8rule_set8get_ruleEj(ptr noundef nonnull align 8 dereferenceable(248) %6, i32 noundef %7)
          to label %invoke.cont7 unwind label %lpad

invoke.cont7:                                     ; preds = %for.body
  store ptr %call8, ptr %r, align 8
  %8 = load ptr, ptr %r, align 8
  %call10 = invoke noundef nonnull align 8 dereferenceable(248) ptr @_ZN10scoped_ptrIN7datalog8rule_setEEdeEv(ptr noundef nonnull align 8 dereferenceable(8) %result)
          to label %invoke.cont9 unwind label %lpad

invoke.cont9:                                     ; preds = %invoke.cont7
  invoke void @_ZN7datalog22mk_array_instantiation16instantiate_ruleERKNS_4ruleERNS_8rule_setE(ptr noundef nonnull align 8 dereferenceable(216) %this1, ptr noundef nonnull align 8 dereferenceable(80) %8, ptr noundef nonnull align 8 dereferenceable(248) %call10)
          to label %invoke.cont11 unwind label %lpad

invoke.cont11:                                    ; preds = %invoke.cont9
  br label %for.inc

for.inc:                                          ; preds = %invoke.cont11
  %9 = load i32, ptr %i, align 4
  %inc = add i32 %9, 1
  store i32 %inc, ptr %i, align 4
  br label %for.cond, !llvm.loop !4

lpad:                                             ; preds = %for.end, %invoke.cont9, %invoke.cont7, %for.body, %invoke.cont3, %invoke.cont, %entry
  %10 = landingpad { ptr, i32 }
          cleanup
  %11 = extractvalue { ptr, i32 } %10, 0
  store ptr %11, ptr %exn.slot, align 8
  %12 = extractvalue { ptr, i32 } %10, 1
  store i32 %12, ptr %ehselector.slot, align 4
  call void @_ZN10scoped_ptrIN7datalog8rule_setEED2Ev(ptr noundef nonnull align 8 dereferenceable(8) %result) #3
  br label %eh.resume

for.end:                                          ; preds = %for.cond
  %call13 = invoke noundef ptr @_ZN10scoped_ptrIN7datalog8rule_setEE6detachEv(ptr noundef nonnull align 8 dereferenceable(8) %result)
          to label %invoke.cont12 unwind label %lpad

invoke.cont12:                                    ; preds = %for.end
  call void @_ZN10scoped_ptrIN7datalog8rule_setEED2Ev(ptr noundef nonnull align 8 dereferenceable(8) %result) #3
  ret ptr %call13

eh.resume:                                        ; preds = %lpad
  %exn = load ptr, ptr %exn.slot, align 8
  %sel = load i32, ptr %ehselector.slot, align 4
  %lpad.val = insertvalue { ptr, i32 } poison, ptr %exn, 0
  %lpad.val14 = insertvalue { ptr, i32 } %lpad.val, i32 %sel, 1
  resume { ptr, i32 } %lpad.val14
}