; Function Attrs: mustprogress uwtable
define hidden noundef ptr @_ZN7datalog22mk_array_instantiationclERKNS_8rule_setE(ptr noundef nonnull align 8 dereferenceable(216) %this, ptr noundef nonnull align 8 dereferenceable(248) %source) unnamed_addr #3 align 2 personality ptr @__gxx_personality_v0 {
entry:
  %result = alloca %class.scoped_ptr.173, align 8
  %src_set = getelementptr inbounds i8, ptr %this, i64 56
  store ptr %source, ptr %src_set, align 8
  %call = tail call noalias noundef ptr @_ZN6memory8allocateEm(i64 noundef 248)
  %m_ctx = getelementptr inbounds i8, ptr %this, i64 32
  %0 = load ptr, ptr %m_ctx, align 8
  tail call void @_ZN7datalog8rule_setC1ERNS_7contextE(ptr noundef nonnull align 8 dereferenceable(248) %call, ptr noundef nonnull align 8 dereferenceable(3556) %0)
  store ptr %call, ptr %result, align 8
  %dst = getelementptr inbounds i8, ptr %this, i64 64
  store ptr %call, ptr %dst, align 8
  %m_nodes.i.i = getelementptr inbounds i8, ptr %source, i64 24
  %1 = load ptr, ptr %m_nodes.i.i, align 8
  %cmp.i.i.i = icmp eq ptr %1, null
  br i1 %cmp.i.i.i, label %invoke.cont3.thread, label %invoke.cont3

invoke.cont3.thread:                              ; preds = %entry
  %m_rule_manager.i10 = getelementptr inbounds i8, ptr %source, i64 8
  %2 = load ptr, ptr %m_rule_manager.i10, align 8
  %src_manager11 = getelementptr inbounds i8, ptr %this, i64 72
  store ptr %2, ptr %src_manager11, align 8
  br label %_ZN10scoped_ptrIN7datalog8rule_setEED2Ev.exit

invoke.cont3:                                     ; preds = %entry
  %arrayidx.i.i.i = getelementptr inbounds i8, ptr %1, i64 -4
  %3 = load i32, ptr %arrayidx.i.i.i, align 4
  %m_rule_manager.i = getelementptr inbounds i8, ptr %source, i64 8
  %4 = load ptr, ptr %m_rule_manager.i, align 8
  %src_manager = getelementptr inbounds i8, ptr %this, i64 72
  store ptr %4, ptr %src_manager, align 8
  %cmp6.not = icmp eq i32 %3, 0
  br i1 %cmp6.not, label %_ZN10scoped_ptrIN7datalog8rule_setEED2Ev.exit, label %invoke.cont7.preheader

invoke.cont7.preheader:                           ; preds = %invoke.cont3
  %wide.trip.count = zext i32 %3 to i64
  br label %invoke.cont7

invoke.cont7:                                     ; preds = %invoke.cont7.preheader, %for.inc
  %indvars.iv = phi i64 [ 0, %invoke.cont7.preheader ], [ %indvars.iv.next, %for.inc ]
  %5 = load ptr, ptr %m_nodes.i.i, align 8
  %arrayidx.i.i.i.i = getelementptr inbounds ptr, ptr %5, i64 %indvars.iv
  %6 = load ptr, ptr %arrayidx.i.i.i.i, align 8
  invoke void @_ZN7datalog22mk_array_instantiation16instantiate_ruleERKNS_4ruleERNS_8rule_setE(ptr noundef nonnull align 8 dereferenceable(216) %this, ptr noundef nonnull align 8 dereferenceable(80) %6, ptr noundef nonnull align 8 dereferenceable(248) %call)
          to label %for.inc unwind label %lpad

for.inc:                                          ; preds = %invoke.cont7
  %indvars.iv.next = add nuw nsw i64 %indvars.iv, 1
  %exitcond.not = icmp eq i64 %indvars.iv.next, %wide.trip.count
  br i1 %exitcond.not, label %_ZN10scoped_ptrIN7datalog8rule_setEED2Ev.exit, label %invoke.cont7, !llvm.loop !7

lpad:                                             ; preds = %invoke.cont7
  %7 = landingpad { ptr, i32 }
          cleanup
  call void @_ZN10scoped_ptrIN7datalog8rule_setEED2Ev(ptr noundef nonnull align 8 dereferenceable(8) %result) #15
  resume { ptr, i32 } %7

_ZN10scoped_ptrIN7datalog8rule_setEED2Ev.exit:    ; preds = %for.inc, %invoke.cont3.thread, %invoke.cont3
  ret ptr %call
}